; Function Attrs: mustprogress nofree norecurse nosync nounwind willreturn memory(argmem: readwrite) uwtable
define internal noundef i32 @down_cb(ptr noundef captures(none) initializes((664, 666)) %0) #1 {
  %2 = getelementptr inbounds nuw i8, ptr %0, i64 664
  store i8 0, ptr %2, align 8, !tbaa !3
  %3 = getelementptr inbounds nuw i8, ptr %0, i64 480
  %4 = load double, ptr %3, align 8, !tbaa !30
  %5 = fdiv double 1.000000e+01, %4
  %6 = getelementptr inbounds nuw i8, ptr %0, i64 472
  %7 = load double, ptr %6, align 8, !tbaa !33
  %8 = fadd double %7, %5
  store double %8, ptr %6, align 8, !tbaa !33
  %9 = getelementptr inbounds nuw i8, ptr %0, i64 665
  store i8 1, ptr %9, align 1, !tbaa !32
  ret i32 0
}